; ModuleID = 'source-C-CXX/59/242.c'
source_filename = "source-C-CXX/59/242.c"
target datalayout = "e-m:e-p270:32:32-p271:32:32-p272:64:64-i64:64-f80:128-n8:16:32:64-S128"
target triple = "x86_64-pc-linux-gnu"

@.str = private unnamed_addr constant [3 x i8] c"%d\00", align 1
@.str.1 = private unnamed_addr constant [7 x i8] c"%d %d\0A\00", align 1
@.str.2 = private unnamed_addr constant [6 x i8] c"empty\00", align 1

; Function Attrs: nofree nounwind sspstrong uwtable
define dso_local i32 @main() local_unnamed_addr #0 {
  %1 = alloca i32, align 4
  %2 = bitcast i32* %1 to i8*
  call void @llvm.lifetime.start.p0i8(i64 4, i8* nonnull %2) #3
  %3 = call i32 (i8*, ...) @__isoc99_scanf(i8* getelementptr inbounds ([3 x i8], [3 x i8]* @.str, i64 0, i64 0), i32* nonnull %1)
  %4 = load i32, i32* %1, align 4, !tbaa !5
  %5 = icmp slt i32 %4, 5
  br i1 %5, label %33, label %6

6:                                                ; preds = %0, %26
  %7 = phi i32 [ %27, %26 ], [ %4, %0 ]
  %8 = phi i32 [ %28, %26 ], [ 0, %0 ]
  %9 = phi i32 [ %10, %26 ], [ 3, %0 ]
  %10 = add nuw nsw i32 %9, 2
  %11 = icmp ugt i32 %9, 3
  br i1 %11, label %14, label %22

12:                                               ; preds = %18
  %13 = icmp ult i32 %21, %9
  br i1 %13, label %14, label %22, !llvm.loop !9

14:                                               ; preds = %6, %12
  %15 = phi i32 [ %21, %12 ], [ 3, %6 ]
  %16 = urem i32 %9, %15
  %17 = icmp eq i32 %16, 0
  br i1 %17, label %26, label %18

18:                                               ; preds = %14
  %19 = urem i32 %10, %15
  %20 = icmp eq i32 %19, 0
  %21 = add nuw nsw i32 %15, 2
  br i1 %20, label %26, label %12

22:                                               ; preds = %12, %6
  %23 = call i32 (i8*, ...) @printf(i8* nonnull dereferenceable(1) getelementptr inbounds ([7 x i8], [7 x i8]* @.str.1, i64 0, i64 0), i32 %9, i32 %10)
  %24 = add nsw i32 %8, 1
  %25 = load i32, i32* %1, align 4, !tbaa !5
  br label %26

26:                                               ; preds = %18, %14, %22
  %27 = phi i32 [ %25, %22 ], [ %7, %14 ], [ %7, %18 ]
  %28 = phi i32 [ %24, %22 ], [ %8, %14 ], [ %8, %18 ]
  %29 = add nsw i32 %27, -2
  %30 = icmp sgt i32 %10, %29
  br i1 %30, label %31, label %6, !llvm.loop !11

31:                                               ; preds = %26
  %32 = icmp eq i32 %28, 0
  br i1 %32, label %33, label %35

33:                                               ; preds = %0, %31
  %34 = call i32 (i8*, ...) @printf(i8* nonnull dereferenceable(1) getelementptr inbounds ([6 x i8], [6 x i8]* @.str.2, i64 0, i64 0))
  br label %35

35:                                               ; preds = %33, %31
  call void @llvm.lifetime.end.p0i8(i64 4, i8* nonnull %2) #3
  ret i32 0
}

; Function Attrs: argmemonly mustprogress nofree nosync nounwind willreturn
declare void @llvm.lifetime.start.p0i8(i64 immarg, i8* nocapture) #1

; Function Attrs: nofree nounwind
declare noundef i32 @__isoc99_scanf(i8* nocapture noundef readonly, ...) local_unnamed_addr #2

; Function Attrs: nofree nounwind
declare noundef i32 @printf(i8* nocapture noundef readonly, ...) local_unnamed_addr #2

; Function Attrs: argmemonly mustprogress nofree nosync nounwind willreturn
declare void @llvm.lifetime.end.p0i8(i64 immarg, i8* nocapture) #1


!llvm.module.flags = !{!0, !1, !2, !3}
!llvm.ident = !{!4}

!0 = !{i32 1, !"wchar_size", i32 4}
!1 = !{i32 7, !"PIC Level", i32 2}
!2 = !{i32 7, !"PIE Level", i32 2}
!3 = !{i32 7, !"uwtable", i32 1}
!4 = !{!"clang version 13.0.0"}
!5 = !{!6, !6, i64 0}
!6 = !{!"int", !7, i64 0}
!7 = !{!"omnipotent char", !8, i64 0}
!8 = !{!"Simple C/C++ TBAA"}
!9 = distinct !{!9, !10}
!10 = !{!"llvm.loop.mustprogress"}
!11 = distinct !{!11, !10}
